; Function Attrs: uwtable
define void @_ZThn16_N22MeshShaderRenderPlugin8finalizeEP7QActionP12MeshDocumentP6GLArea(ptr nocapture noundef %0, ptr nocapture noundef readnone %1, ptr nocapture noundef readnone %2, ptr nocapture noundef readnone %3) unnamed_addr #13 align 2 {
  %5 = getelementptr inbounds i8, ptr %0, i64 80
  %6 = load ptr, ptr %5, align 8
  %7 = icmp eq ptr %6, null
  br i1 %7, label %_ZN22MeshShaderRenderPlugin8finalizeEP7QActionP12MeshDocumentP6GLArea.exit, label %8

8:                                                ; preds = %4
  %9 = load ptr, ptr %6, align 8
  %10 = getelementptr inbounds i8, ptr %9, i64 32
  %11 = load ptr, ptr %10, align 8
  tail call void %11(ptr noundef nonnull align 8 dereferenceable(408) %6) #22
  br label %_ZN22MeshShaderRenderPlugin8finalizeEP7QActionP12MeshDocumentP6GLArea.exit

_ZN22MeshShaderRenderPlugin8finalizeEP7QActionP12MeshDocumentP6GLArea.exit: ; preds = %4, %8
  store ptr null, ptr %5, align 8
  ret void
}